target datalayout = "e-m:e-p270:32:32-p271:32:32-p272:64:64-i64:64-i128:128-f80:128-n8:16:32:64-S128"
target triple = "x86_64-pc-linux-gnu"

%struct._zend_executor_globals = type { %struct._zval_struct, %struct._zval_struct, [32 x ptr], ptr, ptr, %struct._zend_array, %struct._zend_array, ptr, i32, i8, %struct._zval_struct, i32, ptr, ptr, ptr, ptr, ptr, ptr, i64, ptr, ptr, i32, ptr, i32, i64, i32, i32, i32, i8, i8, %struct.zend_atomic_bool_s, %struct.zend_atomic_bool_s, ptr, i64, ptr, ptr, %struct._zend_array, %struct._zend_array, i32, i8, %struct._zval_struct, %struct._zval_struct, %struct._zend_stack, %struct._zend_stack, %struct._zend_stack, ptr, i32, i32, i64, ptr, ptr, ptr, %struct._zend_objects_store, %struct._zend_lazy_objects_store, ptr, ptr, ptr, [3 x %struct._zend_op], ptr, i8, i8, i64, i32, i32, ptr, [16 x %struct._HashTableIterator], ptr, %union._zend_function, %struct._zend_op, %struct._zend_array, i64, %struct.zend_get_gc_buffer, ptr, ptr, ptr, i64, i8, i32, ptr, ptr, i64, %struct._zend_call_stack, i64, i64, %struct._zend_strtod_state, [6 x ptr] }
%struct.zend_atomic_bool_s = type { i8 }
%struct._zval_struct = type { %union._zend_value, %union.anon, %union.anon.2 }
%union._zend_value = type { i64 }
%union.anon = type { i32 }
%union.anon.2 = type { i32 }
%struct._zend_stack = type { i32, i32, i32, ptr }
%struct._zend_objects_store = type { ptr, i32, i32, i32 }
%struct._zend_lazy_objects_store = type { %struct._zend_array }
%struct._HashTableIterator = type { ptr, i32, i32 }
%union._zend_function = type { %struct._zend_op_array }
%struct._zend_op_array = type { i8, [3 x i8], i32, ptr, ptr, ptr, i32, i32, ptr, ptr, ptr, ptr, i32, ptr, i32, i32, i32, ptr, ptr, ptr, ptr, ptr, i32, i32, ptr, ptr, ptr, i32, i32, i32, i32, ptr, ptr, [6 x ptr] }
%struct._zend_op = type { ptr, %union._znode_op, %union._znode_op, %union._znode_op, i32, i32, i8, i8, i8, i8 }
%union._znode_op = type { i32 }
%struct._zend_array = type { %struct._zend_refcounted_h, %union.anon.4, i32, %union.anon.6, i32, i32, i32, i32, i64, ptr }
%struct._zend_refcounted_h = type { i32, %union.anon.3 }
%union.anon.3 = type { i32 }
%union.anon.4 = type { i32 }
%union.anon.6 = type { ptr }
%struct.zend_get_gc_buffer = type { ptr, ptr, ptr }
%struct._zend_call_stack = type { ptr, i64 }
%struct._zend_strtod_state = type { [8 x ptr], ptr, ptr }
%struct._zend_object_handlers = type { i32, ptr, ptr, ptr, ptr, ptr, ptr, ptr, ptr, ptr, ptr, ptr, ptr, ptr, ptr, ptr, ptr, ptr, ptr, ptr, ptr, ptr, ptr, ptr, ptr }
%struct._zend_execute_data = type { ptr, ptr, ptr, ptr, %struct._zval_struct, ptr, ptr, ptr, ptr }
%struct._phar_archive_data = type { ptr, i32, ptr, i32, ptr, i32, [12 x i8], i64, %struct._zend_array, %struct._zend_array, %struct._zend_array, i32, i32, i32, ptr, ptr, i32, i32, i32, ptr, %struct._phar_metadata_tracker, i32, i16 }
%struct._phar_metadata_tracker = type { %struct._zval_struct, ptr }
%struct._zend_object = type { %struct._zend_refcounted_h, i32, i32, ptr, ptr, ptr, [1 x %struct._zval_struct] }

@executor_globals = external global %struct._zend_executor_globals, align 8
@spl_ce_BadMethodCallException = external global ptr, align 8
@.str.72 = private unnamed_addr constant [51 x i8] c"Cannot call method on an uninitialized Phar object\00", align 1

; Function Attrs: nounwind uwtable
define hidden void @zim_Phar_hasMetadata(ptr noundef %0, ptr noundef %1) #0 {
  %3 = alloca ptr, align 8
  %4 = alloca ptr, align 8
  %5 = alloca ptr, align 8
  %6 = alloca ptr, align 8
  %7 = alloca i32, align 4
  store ptr %0, ptr %3, align 8, !tbaa !4
  store ptr %1, ptr %4, align 8, !tbaa !9
  %8 = load ptr, ptr %3, align 8, !tbaa !4
  %9 = getelementptr inbounds nuw %struct._zend_execute_data, ptr %8, i32 0, i32 4
  %10 = getelementptr inbounds nuw %struct._zval_struct, ptr %9, i32 0, i32 2
  %11 = load i32, ptr %10, align 4, !tbaa !13
  %12 = icmp eq i32 %11, 0
  %13 = xor i1 %12, true
  %14 = xor i1 %13, true
  %15 = zext i1 %14 to i32
  %16 = sext i32 %15 to i64
  %17 = call i64 @llvm.expect.i64(i64 %16, i64 1)
  %18 = icmp ne i64 %17, 0
  br i1 %18, label %19, label %20

19:                                               ; preds = %2
  br label %21

20:                                               ; preds = %2
  call void @zend_wrong_parameters_none_error()
  br label %21

21:                                               ; preds = %20, %19
  %22 = phi i32 [ 0, %19 ], [ -1, %20 ]
  %23 = icmp eq i32 %22, -1
  br i1 %23, label %24, label %29

24:                                               ; preds = %21
  br label %25

25:                                               ; preds = %24
  %26 = load ptr, ptr getelementptr inbounds nuw (%struct._zend_executor_globals, ptr @executor_globals, i32 0, i32 54), align 8, !tbaa !14
  %27 = icmp ne ptr %26, null
  call void @llvm.assume(i1 %27)
  br label %80

28:                                               ; No predecessors!
  br label %29

29:                                               ; preds = %28, %21
  call void @llvm.lifetime.start.p0(i64 8, ptr %5) #17
  %30 = load ptr, ptr %3, align 8, !tbaa !4
  %31 = getelementptr inbounds nuw %struct._zend_execute_data, ptr %30, i32 0, i32 4
  store ptr %31, ptr %5, align 8, !tbaa !9
  call void @llvm.lifetime.start.p0(i64 8, ptr %6) #17
  %32 = load ptr, ptr %5, align 8, !tbaa !9
  %33 = getelementptr inbounds nuw %struct._zval_struct, ptr %32, i32 0, i32 0
  %34 = load ptr, ptr %33, align 8, !tbaa !13
  %35 = load ptr, ptr %5, align 8, !tbaa !9
  %36 = getelementptr inbounds nuw %struct._zval_struct, ptr %35, i32 0, i32 0
  %37 = load ptr, ptr %36, align 8, !tbaa !13
  %38 = getelementptr inbounds nuw %struct._zend_object, ptr %37, i32 0, i32 4
  %39 = load ptr, ptr %38, align 8, !tbaa !118
  %40 = getelementptr inbounds nuw %struct._zend_object_handlers, ptr %39, i32 0, i32 0
  %41 = load i32, ptr %40, align 8, !tbaa !121
  %42 = sext i32 %41 to i64
  %43 = sub i64 0, %42
  %44 = getelementptr inbounds i8, ptr %34, i64 %43
  store ptr %44, ptr %6, align 8, !tbaa !123
  %45 = load ptr, ptr %6, align 8, !tbaa !123
  %46 = load ptr, ptr %45, align 8, !tbaa !13
  %47 = icmp ne ptr %46, null
  br i1 %47, label %56, label %48

48:                                               ; preds = %29
  %49 = load ptr, ptr @spl_ce_BadMethodCallException, align 8, !tbaa !53
  %50 = call ptr (ptr, i64, ptr, ...) @zend_throw_exception_ex(ptr noundef %49, i64 noundef 0, ptr noundef @.str.72)
  br label %51

51:                                               ; preds = %48
  %52 = load ptr, ptr getelementptr inbounds nuw (%struct._zend_executor_globals, ptr @executor_globals, i32 0, i32 54), align 8, !tbaa !14
  %53 = icmp ne ptr %52, null
  call void @llvm.assume(i1 %53)
  store i32 1, ptr %7, align 4
  br label %78

54:                                               ; No predecessors!
  br label %55

55:                                               ; preds = %54
  br label %56

56:                                               ; preds = %55, %29
  br label %57

57:                                               ; preds = %56
  br label %58

58:                                               ; preds = %57
  %59 = load ptr, ptr %6, align 8, !tbaa !123
  %60 = load ptr, ptr %59, align 8, !tbaa !13
  %61 = getelementptr inbounds nuw %struct._phar_archive_data, ptr %60, i32 0, i32 20
  %62 = load ptr, ptr %6, align 8, !tbaa !123
  %63 = load ptr, ptr %62, align 8, !tbaa !13
  %64 = getelementptr inbounds nuw %struct._phar_archive_data, ptr %63, i32 0, i32 22
  %65 = load i16, ptr %64, align 4
  %66 = lshr i16 %65, 8
  %67 = and i16 %66, 1
  %68 = zext i16 %67 to i32
  %69 = icmp ne i32 %68, 0
  %70 = call zeroext i1 @phar_metadata_tracker_has_data(ptr noundef %61, i1 noundef zeroext %69)
  %71 = select i1 %70, i32 3, i32 2
  %72 = load ptr, ptr %4, align 8, !tbaa !9
  %73 = getelementptr inbounds nuw %struct._zval_struct, ptr %72, i32 0, i32 1
  store i32 %71, ptr %73, align 8, !tbaa !13
  br label %74

74:                                               ; preds = %58
  br label %75

75:                                               ; preds = %74
  store i32 1, ptr %7, align 4
  br label %78

76:                                               ; No predecessors!
  br label %77

77:                                               ; preds = %76
  store i32 0, ptr %7, align 4
  br label %78

78:                                               ; preds = %77, %75, %51
  call void @llvm.lifetime.end.p0(i64 8, ptr %6) #17
  call void @llvm.lifetime.end.p0(i64 8, ptr %5) #17
  %79 = load i32, ptr %7, align 4
  switch i32 %79, label %81 [
    i32 0, label %80
    i32 1, label %80
  ]

80:                                               ; preds = %25, %78, %78
  ret void

81:                                               ; preds = %78
  unreachable
}